; Function Attrs: nounwind uwtable
define dso_local i32 @LZ4_compressHC_limitedOutput_withStateHC(ptr noundef %0, ptr noundef %1, ptr noundef %2, i32 noundef %3, i32 noundef %4) local_unnamed_addr #4 {
  %6 = alloca i32, align 4
  %7 = icmp ne ptr %0, null
  %8 = ptrtoint ptr %0 to i64
  %9 = and i64 %8, 7
  %.not.i.i = icmp eq i64 %9, 0
  %or.cond10.i.i = and i1 %7, %.not.i.i
  br i1 %or.cond10.i.i, label %LZ4_compress_HC_extStateHC_fastReset.exit.i, label %LZ4_compress_HC_extStateHC.exit

LZ4_compress_HC_extStateHC_fastReset.exit.i:      ; preds = %5
  tail call void @llvm.memset.p0.i64(ptr noundef nonnull align 8 dereferenceable(262192) %0, i8 0, i64 262184, i1 false)
  %10 = getelementptr inbounds nuw i8, ptr %0, i64 262180
  call void @llvm.lifetime.start.p0(i64 4, ptr nonnull %6)
  store i32 %3, ptr %6, align 4, !tbaa !17
  %11 = getelementptr inbounds nuw i8, ptr %0, i64 262184
  store ptr null, ptr %11, align 8, !tbaa !32
  store i16 9, ptr %10, align 4, !tbaa !26
  %12 = getelementptr inbounds nuw i8, ptr %0, i64 262144
  %13 = getelementptr inbounds nuw i8, ptr %0, i64 262152
  %14 = getelementptr inbounds nuw i8, ptr %0, i64 262168
  %15 = getelementptr inbounds nuw i8, ptr %0, i64 262176
  store i32 65536, ptr %15, align 8, !tbaa !33
  store ptr %1, ptr %13, align 8, !tbaa !13
  store ptr %1, ptr %12, align 8, !tbaa !4
  %16 = getelementptr inbounds nuw i8, ptr %0, i64 262160
  store ptr %1, ptr %16, align 8, !tbaa !34
  store i32 65536, ptr %14, align 8, !tbaa !14
  %17 = getelementptr inbounds nuw i8, ptr %0, i64 262172
  store i32 65536, ptr %17, align 4, !tbaa !35
  %18 = tail call i32 @LZ4_compressBound(i32 noundef %3) #18
  %19 = icmp slt i32 %4, %18
  %..i.i = zext i1 %19 to i32
  %20 = call fastcc i32 @LZ4HC_compress_generic(ptr noundef nonnull %0, ptr noundef %1, ptr noundef %2, ptr noundef nonnull %6, i32 noundef %4, i32 noundef 0, i32 noundef %..i.i)
  call void @llvm.lifetime.end.p0(i64 4, ptr nonnull %6)
  br label %LZ4_compress_HC_extStateHC.exit

LZ4_compress_HC_extStateHC.exit:                  ; preds = %5, %LZ4_compress_HC_extStateHC_fastReset.exit.i
  %.0.i = phi i32 [ %20, %LZ4_compress_HC_extStateHC_fastReset.exit.i ], [ 0, %5 ]
  ret i32 %.0.i
}